target datalayout = "e-m:e-p270:32:32-p271:32:32-p272:64:64-i64:64-i128:128-f80:128-n8:16:32:64-S128"
target triple = "x86_64-pc-linux-gnu"

%struct._object = type { %union.anon, ptr }
%union.anon = type { i64 }
%struct._PyDateTime_BaseTZInfo = type { %struct._object, i64, i8 }
%struct.PyDateTime_Time = type { %struct._object, i64, i8, [6 x i8], i8, ptr }

@_Py_NoneStruct = external global %struct._object, align 8
@.str.22 = private unnamed_addr constant [8 x i8] c"(iiiiO)\00", align 1

; Function Attrs: nounwind uwtable
define internal ptr @test_PyDateTime_TIME_GET(ptr noundef %0, ptr noundef %1) #0 {
  %3 = alloca ptr, align 8
  %4 = alloca ptr, align 8
  %5 = alloca i32, align 4
  %6 = alloca i32, align 4
  %7 = alloca i32, align 4
  %8 = alloca i32, align 4
  %9 = alloca ptr, align 8
  store ptr %0, ptr %3, align 8, !tbaa !3
  store ptr %1, ptr %4, align 8, !tbaa !3
  call void @llvm.lifetime.start.p0(i64 4, ptr %5) #6
  %10 = load ptr, ptr %4, align 8, !tbaa !3
  %11 = getelementptr inbounds nuw %struct.PyDateTime_Time, ptr %10, i32 0, i32 3
  %12 = getelementptr [6 x i8], ptr %11, i64 0, i64 0
  %13 = load i8, ptr %12, align 1, !tbaa !8
  %14 = zext i8 %13 to i32
  store i32 %14, ptr %5, align 4, !tbaa !9
  call void @llvm.lifetime.start.p0(i64 4, ptr %6) #6
  %15 = load ptr, ptr %4, align 8, !tbaa !3
  %16 = getelementptr inbounds nuw %struct.PyDateTime_Time, ptr %15, i32 0, i32 3
  %17 = getelementptr [6 x i8], ptr %16, i64 0, i64 1
  %18 = load i8, ptr %17, align 1, !tbaa !8
  %19 = zext i8 %18 to i32
  store i32 %19, ptr %6, align 4, !tbaa !9
  call void @llvm.lifetime.start.p0(i64 4, ptr %7) #6
  %20 = load ptr, ptr %4, align 8, !tbaa !3
  %21 = getelementptr inbounds nuw %struct.PyDateTime_Time, ptr %20, i32 0, i32 3
  %22 = getelementptr [6 x i8], ptr %21, i64 0, i64 2
  %23 = load i8, ptr %22, align 1, !tbaa !8
  %24 = zext i8 %23 to i32
  store i32 %24, ptr %7, align 4, !tbaa !9
  call void @llvm.lifetime.start.p0(i64 4, ptr %8) #6
  %25 = load ptr, ptr %4, align 8, !tbaa !3
  %26 = getelementptr inbounds nuw %struct.PyDateTime_Time, ptr %25, i32 0, i32 3
  %27 = getelementptr [6 x i8], ptr %26, i64 0, i64 3
  %28 = load i8, ptr %27, align 1, !tbaa !8
  %29 = zext i8 %28 to i32
  %30 = shl i32 %29, 16
  %31 = load ptr, ptr %4, align 8, !tbaa !3
  %32 = getelementptr inbounds nuw %struct.PyDateTime_Time, ptr %31, i32 0, i32 3
  %33 = getelementptr [6 x i8], ptr %32, i64 0, i64 4
  %34 = load i8, ptr %33, align 1, !tbaa !8
  %35 = zext i8 %34 to i32
  %36 = shl i32 %35, 8
  %37 = or i32 %30, %36
  %38 = load ptr, ptr %4, align 8, !tbaa !3
  %39 = getelementptr inbounds nuw %struct.PyDateTime_Time, ptr %38, i32 0, i32 3
  %40 = getelementptr [6 x i8], ptr %39, i64 0, i64 5
  %41 = load i8, ptr %40, align 1, !tbaa !8
  %42 = zext i8 %41 to i32
  %43 = or i32 %37, %42
  store i32 %43, ptr %8, align 4, !tbaa !9
  call void @llvm.lifetime.start.p0(i64 8, ptr %9) #6
  %44 = load ptr, ptr %4, align 8, !tbaa !3
  %45 = getelementptr inbounds nuw %struct._PyDateTime_BaseTZInfo, ptr %44, i32 0, i32 2
  %46 = load i8, ptr %45, align 8, !tbaa !11
  %47 = sext i8 %46 to i32
  %48 = icmp ne i32 %47, 0
  br i1 %48, label %49, label %53

49:                                               ; preds = %2
  %50 = load ptr, ptr %4, align 8, !tbaa !3
  %51 = getelementptr inbounds nuw %struct.PyDateTime_Time, ptr %50, i32 0, i32 5
  %52 = load ptr, ptr %51, align 8, !tbaa !22
  br label %54

53:                                               ; preds = %2
  br label %54

54:                                               ; preds = %53, %49
  %55 = phi ptr [ %52, %49 ], [ @_Py_NoneStruct, %53 ]
  store ptr %55, ptr %9, align 8, !tbaa !3
  %56 = load i32, ptr %5, align 4, !tbaa !9
  %57 = load i32, ptr %6, align 4, !tbaa !9
  %58 = load i32, ptr %7, align 4, !tbaa !9
  %59 = load i32, ptr %8, align 4, !tbaa !9
  %60 = load ptr, ptr %9, align 8, !tbaa !3
  %61 = call ptr (ptr, ...) @Py_BuildValue(ptr noundef @.str.22, i32 noundef %56, i32 noundef %57, i32 noundef %58, i32 noundef %59, ptr noundef %60)
  call void @llvm.lifetime.end.p0(i64 8, ptr %9) #6
  call void @llvm.lifetime.end.p0(i64 4, ptr %8) #6
  call void @llvm.lifetime.end.p0(i64 4, ptr %7) #6
  call void @llvm.lifetime.end.p0(i64 4, ptr %6) #6
  call void @llvm.lifetime.end.p0(i64 4, ptr %5) #6
  ret ptr %61
}